(dp1
I4000
(lp2
I42
aI154
aI226
aI125
aI122
asI1000
(lp3
I79
aI140
aI233
aI158
aI197
asI9000
(lp4
I204
aI80
aI171
aI124
aI219
asI2000
(lp5
I205
aI209
aI114
aI90
aI7
asI5000
(lp6
I53
aI151
aI175
aI224
aI194
asI7000
(lp7
I8
aI119
aI242
aI71
aI161
asI3000
(lp8
I220
aI54
aI179
aI101
aI100
asS'day'
p9
I16502
s.